
binarios/proyecto.elf:     file format elf32-littlearm


Disassembly of section .text.code:

10000000 <reset>:
10000000:	b672      	cpsid	i
10000002:	492c      	ldr	r1, [pc, #176]	; (100000b4 <stop+0x2>)
10000004:	482c      	ldr	r0, [pc, #176]	; (100000b8 <stop+0x6>)
10000006:	6008      	str	r0, [r1, #0]
10000008:	492c      	ldr	r1, [pc, #176]	; (100000bc <stop+0xa>)
1000000a:	4788      	blx	r1
1000000c:	f000 f86a 	bl	100000e4 <systick_init>
10000010:	492b      	ldr	r1, [pc, #172]	; (100000c0 <stop+0xe>)
10000012:	f04f 00d4 	mov.w	r0, #212	; 0xd4
10000016:	f8c1 0100 	str.w	r0, [r1, #256]	; 0x100
1000001a:	f8c1 0104 	str.w	r0, [r1, #260]	; 0x104
1000001e:	f8c1 0108 	str.w	r0, [r1, #264]	; 0x108
10000022:	f04f 00d8 	mov.w	r0, #216	; 0xd8
10000026:	f8c1 0080 	str.w	r0, [r1, #128]	; 0x80
1000002a:	f8c1 0084 	str.w	r0, [r1, #132]	; 0x84
1000002e:	f8c1 0088 	str.w	r0, [r1, #136]	; 0x88
10000032:	4824      	ldr	r0, [pc, #144]	; (100000c4 <stop+0x12>)
10000034:	f8c1 0e00 	str.w	r0, [r1, #3584]	; 0xe00
10000038:	4923      	ldr	r1, [pc, #140]	; (100000c8 <stop+0x16>)
1000003a:	f04f 0007 	mov.w	r0, #7
1000003e:	6148      	str	r0, [r1, #20]
10000040:	4922      	ldr	r1, [pc, #136]	; (100000cc <stop+0x1a>)
10000042:	6948      	ldr	r0, [r1, #20]
10000044:	f040 0007 	orr.w	r0, r0, #7
10000048:	6148      	str	r0, [r1, #20]
1000004a:	6808      	ldr	r0, [r1, #0]
1000004c:	f420 7044 	bic.w	r0, r0, #784	; 0x310
10000050:	6008      	str	r0, [r1, #0]
10000052:	4c1f      	ldr	r4, [pc, #124]	; (100000d0 <stop+0x1e>)
10000054:	f04f 0000 	mov.w	r0, #0
10000058:	6020      	str	r0, [r4, #0]
1000005a:	f04f 00ff 	mov.w	r0, #255	; 0xff
1000005e:	61a0      	str	r0, [r4, #24]
10000060:	60e0      	str	r0, [r4, #12]
10000062:	f04f 0003 	mov.w	r0, #3
10000066:	60a0      	str	r0, [r4, #8]
10000068:	f04f 0005 	mov.w	r0, #5
1000006c:	6160      	str	r0, [r4, #20]
1000006e:	f04f 00ff 	mov.w	r0, #255	; 0xff
10000072:	6260      	str	r0, [r4, #36]	; 0x24
10000074:	4917      	ldr	r1, [pc, #92]	; (100000d4 <stop+0x22>)
10000076:	f04f 000f 	mov.w	r0, #15
1000007a:	6008      	str	r0, [r1, #0]
1000007c:	4916      	ldr	r1, [pc, #88]	; (100000d8 <stop+0x26>)
1000007e:	f04f 000f 	mov.w	r0, #15
10000082:	6008      	str	r0, [r1, #0]
10000084:	b662      	cpsie	i
10000086:	4c15      	ldr	r4, [pc, #84]	; (100000dc <stop+0x2a>)
10000088:	4d15      	ldr	r5, [pc, #84]	; (100000e0 <stop+0x2e>)

1000008a <refrescar>:
1000008a:	f04f 0300 	mov.w	r3, #0
1000008e:	6820      	ldr	r0, [r4, #0]
10000090:	f010 0110 	ands.w	r1, r0, #16
10000094:	bf08      	it	eq
10000096:	f043 0301 	orreq.w	r3, r3, #1
1000009a:	f410 7180 	ands.w	r1, r0, #256	; 0x100
1000009e:	bf08      	it	eq
100000a0:	f043 0302 	orreq.w	r3, r3, #2
100000a4:	f410 7100 	ands.w	r1, r0, #512	; 0x200
100000a8:	bf08      	it	eq
100000aa:	f043 0304 	orreq.w	r3, r3, #4
100000ae:	6163      	str	r3, [r4, #20]
100000b0:	e7eb      	b.n	1000008a <refrescar>

100000b2 <stop>:
100000b2:	e7fe      	b.n	100000b2 <stop>
100000b4:	e000ed08 	.word	0xe000ed08
100000b8:	10080000 	.word	0x10080000
100000bc:	1a000101 	.word	0x1a000101
100000c0:	40086000 	.word	0x40086000
100000c4:	00090804 	.word	0x00090804
100000c8:	400f6280 	.word	0x400f6280
100000cc:	400f6000 	.word	0x400f6000
100000d0:	40087000 	.word	0x40087000
100000d4:	e000e284 	.word	0xe000e284
100000d8:	e000e104 	.word	0xe000e104
100000dc:	400f6100 	.word	0x400f6100
100000e0:	400f6300 	.word	0x400f6300

100000e4 <systick_init>:
100000e4:	490b      	ldr	r1, [pc, #44]	; (10000114 <systick_init+0x30>)
100000e6:	6808      	ldr	r0, [r1, #0]
100000e8:	f04f 0202 	mov.w	r2, #2
100000ec:	f362 705f 	bfi	r0, r2, #29, #3
100000f0:	6008      	str	r0, [r1, #0]
100000f2:	4909      	ldr	r1, [pc, #36]	; (10000118 <systick_init+0x34>)
100000f4:	f04f 0000 	mov.w	r0, #0
100000f8:	6008      	str	r0, [r1, #0]
100000fa:	4908      	ldr	r1, [pc, #32]	; (1000011c <systick_init+0x38>)
100000fc:	4808      	ldr	r0, [pc, #32]	; (10000120 <systick_init+0x3c>)
100000fe:	6008      	str	r0, [r1, #0]
10000100:	4908      	ldr	r1, [pc, #32]	; (10000124 <systick_init+0x40>)
10000102:	f04f 0000 	mov.w	r0, #0
10000106:	6008      	str	r0, [r1, #0]
10000108:	4903      	ldr	r1, [pc, #12]	; (10000118 <systick_init+0x34>)
1000010a:	f04f 0007 	mov.w	r0, #7
1000010e:	6008      	str	r0, [r1, #0]
10000110:	4770      	bx	lr
10000112:	0000      	.short	0x0000
10000114:	e000ed20 	.word	0xe000ed20
10000118:	e000e010 	.word	0xe000e010
1000011c:	e000e014 	.word	0xe000e014
10000120:	00493dff 	.word	0x00493dff
10000124:	e000e018 	.word	0xe000e018

10000128 <gpio_isr>:
10000128:	4906      	ldr	r1, [pc, #24]	; (10000144 <gpio_isr+0x1c>)
1000012a:	6a48      	ldr	r0, [r1, #36]	; 0x24
1000012c:	6248      	str	r0, [r1, #36]	; 0x24
1000012e:	f010 0f01 	tst.w	r0, #1
10000132:	bf14      	ite	ne
10000134:	4804      	ldrne	r0, [pc, #16]	; (10000148 <gpio_isr+0x20>)
10000136:	4805      	ldreq	r0, [pc, #20]	; (1000014c <gpio_isr+0x24>)
10000138:	b500      	push	{lr}
1000013a:	4780      	blx	r0
1000013c:	f85d eb04 	ldr.w	lr, [sp], #4
10000140:	4770      	bx	lr
10000142:	0000      	.short	0x0000
10000144:	40087000 	.word	0x40087000
10000148:	1a00021d 	.word	0x1a00021d
1000014c:	1a00024d 	.word	0x1a00024d

10000150 <systick_isr>:
10000150:	4806      	ldr	r0, [pc, #24]	; (1000016c <systick_exit+0x6>)
10000152:	7801      	ldrb	r1, [r0, #0]
10000154:	3901      	subs	r1, #1
10000156:	d806      	bhi.n	10000166 <systick_exit>
10000158:	b501      	push	{r0, lr}
1000015a:	4805      	ldr	r0, [pc, #20]	; (10000170 <systick_exit+0xa>)
1000015c:	4780      	blx	r0
1000015e:	e8bd 4001 	ldmia.w	sp!, {r0, lr}
10000162:	f04f 010a 	mov.w	r1, #10

10000166 <systick_exit>:
10000166:	7001      	strb	r1, [r0, #0]
10000168:	4770      	bx	lr
1000016a:	0000      	.short	0x0000
1000016c:	10080100 	.word	0x10080100
10000170:	1a00027d 	.word	0x1a00027d

10000174 <handler>:
10000174:	4801      	ldr	r0, [pc, #4]	; (1000017c <handler+0x8>)
10000176:	4780      	blx	r0
10000178:	e7fc      	b.n	10000174 <handler>
1000017a:	0000      	.short	0x0000
1000017c:	1a0001fd 	.word	0x1a0001fd
